; Function Attrs: mustprogress nounwind uwtable
define dso_local void @_ZN4llvm13StringMapImpl9RemoveKeyEPNS_18StringMapEntryBaseE(ptr nocapture noundef nonnull align 8 dereferenceable(24) %0, ptr noundef %1) local_unnamed_addr #0 align 2 {
  %3 = getelementptr inbounds nuw i8, ptr %0, i64 20
  %4 = load i32, ptr %3, align 4
  %5 = zext i32 %4 to i64
  %6 = getelementptr inbounds i8, ptr %1, i64 %5
  %7 = load i64, ptr %1, align 8
  %8 = tail call noundef ptr @_ZN4llvm13StringMapImpl9RemoveKeyENS_9StringRefE(ptr noundef nonnull align 8 dereferenceable(24) %0, ptr nonnull %6, i64 %7)
  ret void
}